; Function Attrs: nounwind uwtable
define hidden void @zim_ReflectionProperty_hasDefaultValue(ptr noundef readonly captures(none) %0, ptr noundef writeonly captures(none) %1) #0 {
  %3 = getelementptr inbounds nuw i8, ptr %0, i64 44
  %4 = load i32, ptr %3, align 4, !tbaa !26
  %.not = icmp eq i32 %4, 0
  br i1 %.not, label %6, label %5, !prof !70

5:                                                ; preds = %2
  tail call void @zend_wrong_parameters_none_error() #13
  br label %58

6:                                                ; preds = %2
  %7 = getelementptr inbounds nuw i8, ptr %0, i64 32
  %8 = load ptr, ptr %7, align 8, !tbaa !26
  %9 = getelementptr inbounds i8, ptr %8, i64 -24
  %10 = load ptr, ptr %9, align 8, !tbaa !27
  %11 = icmp eq ptr %10, null
  br i1 %11, label %12, label %22

12:                                               ; preds = %6
  %13 = load ptr, ptr getelementptr inbounds nuw (i8, ptr @executor_globals, i64 960), align 8, !tbaa !39
  %.not16 = icmp eq ptr %13, null
  br i1 %.not16, label %19, label %14

14:                                               ; preds = %12
  %15 = getelementptr inbounds nuw i8, ptr %13, i64 16
  %16 = load ptr, ptr %15, align 8, !tbaa !34
  %17 = load ptr, ptr @reflection_exception_ptr, align 8, !tbaa !38
  %18 = icmp eq ptr %16, %17
  br i1 %18, label %58, label %19

19:                                               ; preds = %14, %12
  tail call void (ptr, ptr, ...) @zend_throw_error(ptr noundef null, ptr noundef nonnull @.str.10) #13
  %20 = load ptr, ptr getelementptr inbounds nuw (i8, ptr @executor_globals, i64 960), align 8, !tbaa !39
  %21 = icmp ne ptr %20, null
  tail call void @llvm.assume(i1 %21)
  br label %58

22:                                               ; preds = %6
  %23 = load ptr, ptr %10, align 8, !tbaa !222
  %24 = icmp eq ptr %23, null
  br i1 %24, label %25, label %27

25:                                               ; preds = %22
  %26 = getelementptr inbounds nuw i8, ptr %1, i64 8
  store i32 2, ptr %26, align 8, !tbaa !26
  br label %58

27:                                               ; preds = %22
  %28 = getelementptr inbounds nuw i8, ptr %23, i64 32
  %29 = load ptr, ptr %28, align 8, !tbaa !208
  %30 = getelementptr inbounds nuw i8, ptr %23, i64 4
  %31 = load i32, ptr %30, align 4, !tbaa !205
  %32 = and i32 %31, 16
  %.not.i = icmp eq i32 %32, 0
  br i1 %.not.i, label %44, label %33

33:                                               ; preds = %27
  %34 = getelementptr inbounds nuw i8, ptr %29, i64 48
  %35 = load ptr, ptr %34, align 8, !tbaa !213
  %36 = load i32, ptr %23, align 8, !tbaa !209
  %37 = zext i32 %36 to i64
  %38 = getelementptr inbounds nuw %struct._zval_struct, ptr %35, i64 %37
  %39 = getelementptr inbounds nuw i8, ptr %38, i64 8
  %40 = load i8, ptr %39, align 8, !tbaa !26
  %41 = icmp eq i8 %40, 12
  br i1 %41, label %42, label %property_get_default.exit.thread19

42:                                               ; preds = %33
  %43 = load ptr, ptr %38, align 8, !tbaa !26
  br label %property_get_default.exit

44:                                               ; preds = %27
  %45 = and i32 %31, 512
  %.not12.i = icmp eq i32 %45, 0
  br i1 %.not12.i, label %46, label %property_get_default.exit.thread

46:                                               ; preds = %44
  %47 = getelementptr inbounds nuw i8, ptr %29, i64 40
  %48 = load ptr, ptr %47, align 8, !tbaa !214
  %49 = load i32, ptr %23, align 8, !tbaa !209
  %50 = add i32 %49, -40
  %51 = lshr i32 %50, 4
  %52 = zext nneg i32 %51 to i64
  %53 = getelementptr inbounds nuw %struct._zval_struct, ptr %48, i64 %52
  br label %property_get_default.exit

property_get_default.exit:                        ; preds = %42, %46
  %.011.i = phi ptr [ %53, %46 ], [ %43, %42 ]
  %.not14 = icmp eq ptr %.011.i, null
  br i1 %.not14, label %property_get_default.exit.thread, label %property_get_default.exit.property_get_default.exit.thread19_crit_edge

property_get_default.exit.property_get_default.exit.thread19_crit_edge: ; preds = %property_get_default.exit
  %.phi.trans.insert = getelementptr inbounds nuw i8, ptr %.011.i, i64 8
  %.pre = load i8, ptr %.phi.trans.insert, align 8, !tbaa !26
  br label %property_get_default.exit.thread19

property_get_default.exit.thread19:               ; preds = %property_get_default.exit.property_get_default.exit.thread19_crit_edge, %33
  %54 = phi i8 [ %.pre, %property_get_default.exit.property_get_default.exit.thread19_crit_edge ], [ %40, %33 ]
  %.not15 = icmp eq i8 %54, 0
  %55 = select i1 %.not15, i32 2, i32 3
  br label %property_get_default.exit.thread

property_get_default.exit.thread:                 ; preds = %44, %property_get_default.exit.thread19, %property_get_default.exit
  %56 = phi i32 [ 2, %property_get_default.exit ], [ %55, %property_get_default.exit.thread19 ], [ 2, %44 ]
  %57 = getelementptr inbounds nuw i8, ptr %1, i64 8
  store i32 %56, ptr %57, align 8, !tbaa !26
  br label %58

58:                                               ; preds = %14, %property_get_default.exit.thread, %25, %19, %5
  ret void
}